target datalayout = "e-m:e-p270:32:32-p271:32:32-p272:64:64-i64:64-i128:128-f80:128-n8:16:32:64-S128"
target triple = "x86_64-pc-linux-gnu"

%struct.HUFv06_DEltX2 = type { i8, i8 }

; Function Attrs: nounwind uwtable
define internal i32 @ERR_isError(i64 noundef %0) #0 {
  %2 = alloca i64, align 8
  store i64 %0, ptr %2, align 8, !tbaa !3
  %3 = load i64, ptr %2, align 8, !tbaa !3
  %4 = icmp ugt i64 %3, -120
  %5 = zext i1 %4 to i32
  ret i32 %5
}

; Function Attrs: nounwind uwtable
define internal i32 @HUFv06_isError(i64 noundef %0) #0 {
  %2 = alloca i64, align 8
  store i64 %0, ptr %2, align 8, !tbaa !3
  %3 = load i64, ptr %2, align 8, !tbaa !3
  %4 = call i32 @ERR_isError(i64 noundef %3)
  ret i32 %4
}

; Function Attrs: nounwind uwtable
define i64 @HUFv06_readDTableX2(ptr noundef %0, ptr noundef %1, i64 noundef %2) #0 {
  %4 = alloca i64, align 8
  %5 = alloca ptr, align 8
  %6 = alloca ptr, align 8
  %7 = alloca i64, align 8
  %8 = alloca [256 x i8], align 16
  %9 = alloca [17 x i32], align 16
  %10 = alloca i32, align 4
  %11 = alloca i64, align 8
  %12 = alloca i32, align 4
  %13 = alloca i32, align 4
  %14 = alloca i32, align 4
  %15 = alloca ptr, align 8
  %16 = alloca ptr, align 8
  %17 = alloca i32, align 4
  %18 = alloca i32, align 4
  %19 = alloca i32, align 4
  %20 = alloca i32, align 4
  %21 = alloca i32, align 4
  %22 = alloca %struct.HUFv06_DEltX2, align 1
  store ptr %0, ptr %5, align 8, !tbaa !7
  store ptr %1, ptr %6, align 8, !tbaa !12
  store i64 %2, ptr %7, align 8, !tbaa !3
  call void @llvm.lifetime.start.p0(i64 256, ptr %8) #10
  call void @llvm.lifetime.start.p0(i64 68, ptr %9) #10
  call void @llvm.lifetime.start.p0(i64 4, ptr %10) #10
  store i32 0, ptr %10, align 4, !tbaa !15
  call void @llvm.lifetime.start.p0(i64 8, ptr %11) #10
  call void @llvm.lifetime.start.p0(i64 4, ptr %12) #10
  store i32 0, ptr %12, align 4, !tbaa !15
  call void @llvm.lifetime.start.p0(i64 4, ptr %13) #10
  call void @llvm.lifetime.start.p0(i64 4, ptr %14) #10
  call void @llvm.lifetime.start.p0(i64 8, ptr %15) #10
  %23 = load ptr, ptr %5, align 8, !tbaa !7
  %24 = getelementptr inbounds i16, ptr %23, i64 1
  store ptr %24, ptr %15, align 8, !tbaa !12
  call void @llvm.lifetime.start.p0(i64 8, ptr %16) #10
  %25 = load ptr, ptr %15, align 8, !tbaa !12
  store ptr %25, ptr %16, align 8, !tbaa !12
  %26 = getelementptr inbounds [256 x i8], ptr %8, i64 0, i64 0
  %27 = getelementptr inbounds [17 x i32], ptr %9, i64 0, i64 0
  %28 = load ptr, ptr %6, align 8, !tbaa !12
  %29 = load i64, ptr %7, align 8, !tbaa !3
  %30 = call i64 @HUFv06_readStats(ptr noundef %26, i64 noundef 256, ptr noundef %27, ptr noundef %12, ptr noundef %10, ptr noundef %28, i64 noundef %29)
  store i64 %30, ptr %11, align 8, !tbaa !3
  %31 = load i64, ptr %11, align 8, !tbaa !3
  %32 = call i32 @HUFv06_isError(i64 noundef %31)
  %33 = icmp ne i32 %32, 0
  br i1 %33, label %34, label %36

34:                                               ; preds = %3
  %35 = load i64, ptr %11, align 8, !tbaa !3
  store i64 %35, ptr %4, align 8
  store i32 1, ptr %17, align 4
  br label %128

36:                                               ; preds = %3
  %37 = load i32, ptr %10, align 4, !tbaa !15
  %38 = load ptr, ptr %5, align 8, !tbaa !7
  %39 = getelementptr inbounds i16, ptr %38, i64 0
  %40 = load i16, ptr %39, align 2, !tbaa !20
  %41 = zext i16 %40 to i32
  %42 = icmp ugt i32 %37, %41
  br i1 %42, label %43, label %44

43:                                               ; preds = %36
  store i64 -44, ptr %4, align 8
  store i32 1, ptr %17, align 4
  br label %128

44:                                               ; preds = %36
  %45 = load i32, ptr %10, align 4, !tbaa !15
  %46 = trunc i32 %45 to i16
  %47 = load ptr, ptr %5, align 8, !tbaa !7
  %48 = getelementptr inbounds i16, ptr %47, i64 0
  store i16 %46, ptr %48, align 2, !tbaa !20
  store i32 0, ptr %14, align 4, !tbaa !15
  store i32 1, ptr %13, align 4, !tbaa !15
  br label %49

49:                                               ; preds = %69, %44
  %50 = load i32, ptr %13, align 4, !tbaa !15
  %51 = load i32, ptr %10, align 4, !tbaa !15
  %52 = add i32 %51, 1
  %53 = icmp ult i32 %50, %52
  br i1 %53, label %54, label %72

54:                                               ; preds = %49
  call void @llvm.lifetime.start.p0(i64 4, ptr %18) #10
  %55 = load i32, ptr %14, align 4, !tbaa !15
  store i32 %55, ptr %18, align 4, !tbaa !15
  %56 = load i32, ptr %13, align 4, !tbaa !15
  %57 = zext i32 %56 to i64
  %58 = getelementptr inbounds nuw [17 x i32], ptr %9, i64 0, i64 %57
  %59 = load i32, ptr %58, align 4, !tbaa !15
  %60 = load i32, ptr %13, align 4, !tbaa !15
  %61 = sub i32 %60, 1
  %62 = shl i32 %59, %61
  %63 = load i32, ptr %14, align 4, !tbaa !15
  %64 = add i32 %63, %62
  store i32 %64, ptr %14, align 4, !tbaa !15
  %65 = load i32, ptr %18, align 4, !tbaa !15
  %66 = load i32, ptr %13, align 4, !tbaa !15
  %67 = zext i32 %66 to i64
  %68 = getelementptr inbounds nuw [17 x i32], ptr %9, i64 0, i64 %67
  store i32 %65, ptr %68, align 4, !tbaa !15
  call void @llvm.lifetime.end.p0(i64 4, ptr %18) #10
  br label %69

69:                                               ; preds = %54
  %70 = load i32, ptr %13, align 4, !tbaa !15
  %71 = add i32 %70, 1
  store i32 %71, ptr %13, align 4, !tbaa !15
  br label %49, !llvm.loop !40

72:                                               ; preds = %49
  store i32 0, ptr %13, align 4, !tbaa !15
  br label %73

73:                                               ; preds = %123, %72
  %74 = load i32, ptr %13, align 4, !tbaa !15
  %75 = load i32, ptr %12, align 4, !tbaa !15
  %76 = icmp ult i32 %74, %75
  br i1 %76, label %77, label %126

77:                                               ; preds = %73
  call void @llvm.lifetime.start.p0(i64 4, ptr %19) #10
  %78 = load i32, ptr %13, align 4, !tbaa !15
  %79 = zext i32 %78 to i64
  %80 = getelementptr inbounds nuw [256 x i8], ptr %8, i64 0, i64 %79
  %81 = load i8, ptr %80, align 1, !tbaa !34
  %82 = zext i8 %81 to i32
  store i32 %82, ptr %19, align 4, !tbaa !15
  call void @llvm.lifetime.start.p0(i64 4, ptr %20) #10
  %83 = load i32, ptr %19, align 4, !tbaa !15
  %84 = shl i32 1, %83
  %85 = ashr i32 %84, 1
  store i32 %85, ptr %20, align 4, !tbaa !15
  call void @llvm.lifetime.start.p0(i64 4, ptr %21) #10
  call void @llvm.lifetime.start.p0(i64 2, ptr %22) #10
  %86 = load i32, ptr %13, align 4, !tbaa !15
  %87 = trunc i32 %86 to i8
  %88 = getelementptr inbounds nuw %struct.HUFv06_DEltX2, ptr %22, i32 0, i32 0
  store i8 %87, ptr %88, align 1, !tbaa !41
  %89 = load i32, ptr %10, align 4, !tbaa !15
  %90 = add i32 %89, 1
  %91 = load i32, ptr %19, align 4, !tbaa !15
  %92 = sub i32 %90, %91
  %93 = trunc i32 %92 to i8
  %94 = getelementptr inbounds nuw %struct.HUFv06_DEltX2, ptr %22, i32 0, i32 1
  store i8 %93, ptr %94, align 1, !tbaa !43
  %95 = load i32, ptr %19, align 4, !tbaa !15
  %96 = zext i32 %95 to i64
  %97 = getelementptr inbounds nuw [17 x i32], ptr %9, i64 0, i64 %96
  %98 = load i32, ptr %97, align 4, !tbaa !15
  store i32 %98, ptr %21, align 4, !tbaa !15
  br label %99

99:                                               ; preds = %113, %77
  %100 = load i32, ptr %21, align 4, !tbaa !15
  %101 = load i32, ptr %19, align 4, !tbaa !15
  %102 = zext i32 %101 to i64
  %103 = getelementptr inbounds nuw [17 x i32], ptr %9, i64 0, i64 %102
  %104 = load i32, ptr %103, align 4, !tbaa !15
  %105 = load i32, ptr %20, align 4, !tbaa !15
  %106 = add i32 %104, %105
  %107 = icmp ult i32 %100, %106
  br i1 %107, label %108, label %116

108:                                              ; preds = %99
  %109 = load ptr, ptr %16, align 8, !tbaa !12
  %110 = load i32, ptr %21, align 4, !tbaa !15
  %111 = zext i32 %110 to i64
  %112 = getelementptr inbounds nuw %struct.HUFv06_DEltX2, ptr %109, i64 %111
  call void @llvm.memcpy.p0.p0.i64(ptr align 1 %112, ptr align 1 %22, i64 2, i1 false), !tbaa.struct !44
  br label %113

113:                                              ; preds = %108
  %114 = load i32, ptr %21, align 4, !tbaa !15
  %115 = add i32 %114, 1
  store i32 %115, ptr %21, align 4, !tbaa !15
  br label %99, !llvm.loop !45

116:                                              ; preds = %99
  %117 = load i32, ptr %20, align 4, !tbaa !15
  %118 = load i32, ptr %19, align 4, !tbaa !15
  %119 = zext i32 %118 to i64
  %120 = getelementptr inbounds nuw [17 x i32], ptr %9, i64 0, i64 %119
  %121 = load i32, ptr %120, align 4, !tbaa !15
  %122 = add i32 %121, %117
  store i32 %122, ptr %120, align 4, !tbaa !15
  call void @llvm.lifetime.end.p0(i64 2, ptr %22) #10
  call void @llvm.lifetime.end.p0(i64 4, ptr %21) #10
  call void @llvm.lifetime.end.p0(i64 4, ptr %20) #10
  call void @llvm.lifetime.end.p0(i64 4, ptr %19) #10
  br label %123

123:                                              ; preds = %116
  %124 = load i32, ptr %13, align 4, !tbaa !15
  %125 = add i32 %124, 1
  store i32 %125, ptr %13, align 4, !tbaa !15
  br label %73, !llvm.loop !46

126:                                              ; preds = %73
  %127 = load i64, ptr %11, align 8, !tbaa !3
  store i64 %127, ptr %4, align 8
  store i32 1, ptr %17, align 4
  br label %128

128:                                              ; preds = %126, %43, %34
  call void @llvm.lifetime.end.p0(i64 8, ptr %16) #10
  call void @llvm.lifetime.end.p0(i64 8, ptr %15) #10
  call void @llvm.lifetime.end.p0(i64 4, ptr %14) #10
  call void @llvm.lifetime.end.p0(i64 4, ptr %13) #10
  call void @llvm.lifetime.end.p0(i64 4, ptr %12) #10
  call void @llvm.lifetime.end.p0(i64 8, ptr %11) #10
  call void @llvm.lifetime.end.p0(i64 4, ptr %10) #10
  call void @llvm.lifetime.end.p0(i64 68, ptr %9) #10
  call void @llvm.lifetime.end.p0(i64 256, ptr %8) #10
  %129 = load i64, ptr %4, align 8
  ret i64 %129
}

; Function Attrs: nounwind uwtable
define i64 @HUFv06_decompress4X2(ptr noundef %0, i64 noundef %1, ptr noundef %2, i64 noundef %3) #0 {
  %5 = alloca i64, align 8
  %6 = alloca ptr, align 8
  %7 = alloca i64, align 8
  %8 = alloca ptr, align 8
  %9 = alloca i64, align 8
  %10 = alloca [4097 x i16], align 16
  %11 = alloca ptr, align 8
  %12 = alloca i64, align 8
  %13 = alloca i32, align 4
  store ptr %0, ptr %6, align 8, !tbaa !12
  store i64 %1, ptr %7, align 8, !tbaa !3
  store ptr %2, ptr %8, align 8, !tbaa !12
  store i64 %3, ptr %9, align 8, !tbaa !3
  call void @llvm.lifetime.start.p0(i64 8194, ptr %10) #10
  call void @llvm.memset.p0.i64(ptr align 16 %10, i8 0, i64 8194, i1 false)
  %14 = getelementptr inbounds <{ i16, [4096 x i16] }>, ptr %10, i32 0, i32 0
  store i16 12, ptr %14, align 16
  call void @llvm.lifetime.start.p0(i64 8, ptr %11) #10
  %15 = load ptr, ptr %8, align 8, !tbaa !12
  store ptr %15, ptr %11, align 8, !tbaa !13
  call void @llvm.lifetime.start.p0(i64 8, ptr %12) #10
  %16 = getelementptr inbounds [4097 x i16], ptr %10, i64 0, i64 0
  %17 = load ptr, ptr %8, align 8, !tbaa !12
  %18 = load i64, ptr %9, align 8, !tbaa !3
  %19 = call i64 @HUFv06_readDTableX2(ptr noundef %16, ptr noundef %17, i64 noundef %18)
  store i64 %19, ptr %12, align 8, !tbaa !3
  %20 = load i64, ptr %12, align 8, !tbaa !3
  %21 = call i32 @HUFv06_isError(i64 noundef %20)
  %22 = icmp ne i32 %21, 0
  br i1 %22, label %23, label %25

23:                                               ; preds = %4
  %24 = load i64, ptr %12, align 8, !tbaa !3
  store i64 %24, ptr %5, align 8
  store i32 1, ptr %13, align 4
  br label %43

25:                                               ; preds = %4
  %26 = load i64, ptr %12, align 8, !tbaa !3
  %27 = load i64, ptr %9, align 8, !tbaa !3
  %28 = icmp uge i64 %26, %27
  br i1 %28, label %29, label %30

29:                                               ; preds = %25
  store i64 -72, ptr %5, align 8
  store i32 1, ptr %13, align 4
  br label %43

30:                                               ; preds = %25
  %31 = load i64, ptr %12, align 8, !tbaa !3
  %32 = load ptr, ptr %11, align 8, !tbaa !13
  %33 = getelementptr inbounds nuw i8, ptr %32, i64 %31
  store ptr %33, ptr %11, align 8, !tbaa !13
  %34 = load i64, ptr %12, align 8, !tbaa !3
  %35 = load i64, ptr %9, align 8, !tbaa !3
  %36 = sub i64 %35, %34
  store i64 %36, ptr %9, align 8, !tbaa !3
  %37 = load ptr, ptr %6, align 8, !tbaa !12
  %38 = load i64, ptr %7, align 8, !tbaa !3
  %39 = load ptr, ptr %11, align 8, !tbaa !13
  %40 = load i64, ptr %9, align 8, !tbaa !3
  %41 = getelementptr inbounds [4097 x i16], ptr %10, i64 0, i64 0
  %42 = call i64 @HUFv06_decompress4X2_usingDTable(ptr noundef %37, i64 noundef %38, ptr noundef %39, i64 noundef %40, ptr noundef %41)
  store i64 %42, ptr %5, align 8
  store i32 1, ptr %13, align 4
  br label %43

43:                                               ; preds = %30, %29, %23
  call void @llvm.lifetime.end.p0(i64 8, ptr %12) #10
  call void @llvm.lifetime.end.p0(i64 8, ptr %11) #10
  call void @llvm.lifetime.end.p0(i64 8194, ptr %10) #10
  %44 = load i64, ptr %5, align 8
  ret i64 %44
}